target datalayout = "e-m:e-p270:32:32-p271:32:32-p272:64:64-i64:64-i128:128-f80:128-n8:16:32:64-S128"
target triple = "x86_64-pc-linux-gnu"

@_ZL13g_tempNormals = internal global [200 x float] zeroinitializer, align 16
@_ZL12g_tempCoords = internal global [200 x float] zeroinitializer, align 16

; Function Attrs: mustprogress nounwind uwtable
define linkonce_odr dso_local noundef i32 @_Z4RGBAhhhh(i8 noundef zeroext %0, i8 noundef zeroext %1, i8 noundef zeroext %2, i8 noundef zeroext %3) #1 comdat {
  %5 = alloca i8, align 1
  %6 = alloca i8, align 1
  %7 = alloca i8, align 1
  %8 = alloca i8, align 1
  store i8 %0, ptr %5, align 1
  store i8 %1, ptr %6, align 1
  store i8 %2, ptr %7, align 1
  store i8 %3, ptr %8, align 1
  %9 = load i8, ptr %5, align 1
  %10 = zext i8 %9 to i32
  %11 = load i8, ptr %6, align 1
  %12 = zext i8 %11 to i32
  %13 = shl i32 %12, 8
  %14 = or i32 %10, %13
  %15 = load i8, ptr %7, align 1
  %16 = zext i8 %15 to i32
  %17 = shl i32 %16, 16
  %18 = or i32 %14, %17
  %19 = load i8, ptr %8, align 1
  %20 = zext i8 %19 to i32
  %21 = shl i32 %20, 24
  %22 = or i32 %18, %21
  ret i32 %22
}

; Function Attrs: mustprogress uwtable
define internal void @_ZL11drawPolygonPKfjfj(ptr noundef %0, i32 noundef %1, float noundef %2, i32 noundef %3) #0 {
  %5 = alloca ptr, align 8
  %6 = alloca i32, align 4
  %7 = alloca float, align 4
  %8 = alloca i32, align 4
  %9 = alloca i32, align 4
  %10 = alloca i32, align 4
  %11 = alloca ptr, align 8
  %12 = alloca ptr, align 8
  %13 = alloca float, align 4
  %14 = alloca float, align 4
  %15 = alloca float, align 4
  %16 = alloca i32, align 4
  %17 = alloca i32, align 4
  %18 = alloca float, align 4
  %19 = alloca float, align 4
  %20 = alloca float, align 4
  %21 = alloca float, align 4
  %22 = alloca float, align 4
  %23 = alloca float, align 4
  %24 = alloca float, align 4
  %25 = alloca float, align 4
  %26 = alloca i32, align 4
  %27 = alloca i32, align 4
  %28 = alloca i32, align 4
  %29 = alloca i32, align 4
  store ptr %0, ptr %5, align 8
  store i32 %1, ptr %6, align 4
  store float %2, ptr %7, align 4
  store i32 %3, ptr %8, align 4
  %30 = load i32, ptr %6, align 4
  %31 = icmp ugt i32 %30, 100
  br i1 %31, label %32, label %33

32:                                               ; preds = %4
  store i32 100, ptr %6, align 4
  br label %33

33:                                               ; preds = %32, %4
  store i32 0, ptr %9, align 4
  %34 = load i32, ptr %6, align 4
  %35 = sub i32 %34, 1
  store i32 %35, ptr %10, align 4
  br label %36

36:                                               ; preds = %97, %33
  %37 = load i32, ptr %9, align 4
  %38 = load i32, ptr %6, align 4
  %39 = icmp ult i32 %37, %38
  br i1 %39, label %40, label %100

40:                                               ; preds = %36
  %41 = load ptr, ptr %5, align 8
  %42 = load i32, ptr %10, align 4
  %43 = mul i32 %42, 2
  %44 = zext i32 %43 to i64
  %45 = getelementptr inbounds float, ptr %41, i64 %44
  store ptr %45, ptr %11, align 8
  %46 = load ptr, ptr %5, align 8
  %47 = load i32, ptr %9, align 4
  %48 = mul i32 %47, 2
  %49 = zext i32 %48 to i64
  %50 = getelementptr inbounds float, ptr %46, i64 %49
  store ptr %50, ptr %12, align 8
  %51 = load ptr, ptr %12, align 8
  %52 = getelementptr inbounds float, ptr %51, i64 0
  %53 = load float, ptr %52, align 4
  %54 = load ptr, ptr %11, align 8
  %55 = getelementptr inbounds float, ptr %54, i64 0
  %56 = load float, ptr %55, align 4
  %57 = fsub float %53, %56
  store float %57, ptr %13, align 4
  %58 = load ptr, ptr %12, align 8
  %59 = getelementptr inbounds float, ptr %58, i64 1
  %60 = load float, ptr %59, align 4
  %61 = load ptr, ptr %11, align 8
  %62 = getelementptr inbounds float, ptr %61, i64 1
  %63 = load float, ptr %62, align 4
  %64 = fsub float %60, %63
  store float %64, ptr %14, align 4
  %65 = load float, ptr %13, align 4
  %66 = load float, ptr %13, align 4
  %67 = load float, ptr %14, align 4
  %68 = load float, ptr %14, align 4
  %69 = fmul float %67, %68
  %70 = call float @llvm.fmuladd.f32(float %65, float %66, float %69)
  %71 = call float @sqrtf(float noundef %70) #10
  store float %71, ptr %15, align 4
  %72 = load float, ptr %15, align 4
  %73 = fcmp ogt float %72, 0.000000e+00
  br i1 %73, label %74, label %83

74:                                               ; preds = %40
  %75 = load float, ptr %15, align 4
  %76 = fdiv float 1.000000e+00, %75
  store float %76, ptr %15, align 4
  %77 = load float, ptr %15, align 4
  %78 = load float, ptr %13, align 4
  %79 = fmul float %78, %77
  store float %79, ptr %13, align 4
  %80 = load float, ptr %15, align 4
  %81 = load float, ptr %14, align 4
  %82 = fmul float %81, %80
  store float %82, ptr %14, align 4
  br label %83

83:                                               ; preds = %74, %40
  %84 = load float, ptr %14, align 4
  %85 = load i32, ptr %10, align 4
  %86 = mul i32 %85, 2
  %87 = add i32 %86, 0
  %88 = zext i32 %87 to i64
  %89 = getelementptr inbounds [200 x float], ptr @_ZL13g_tempNormals, i64 0, i64 %88
  store float %84, ptr %89, align 4
  %90 = load float, ptr %13, align 4
  %91 = fneg float %90
  %92 = load i32, ptr %10, align 4
  %93 = mul i32 %92, 2
  %94 = add i32 %93, 1
  %95 = zext i32 %94 to i64
  %96 = getelementptr inbounds [200 x float], ptr @_ZL13g_tempNormals, i64 0, i64 %95
  store float %91, ptr %96, align 4
  br label %97

97:                                               ; preds = %83
  %98 = load i32, ptr %9, align 4
  %99 = add i32 %98, 1
  store i32 %99, ptr %9, align 4
  store i32 %98, ptr %10, align 4
  br label %36, !llvm.loop !56

100:                                              ; preds = %36
  store i32 0, ptr %16, align 4
  %101 = load i32, ptr %6, align 4
  %102 = sub i32 %101, 1
  store i32 %102, ptr %17, align 4
  br label %103

103:                                              ; preds = %192, %100
  %104 = load i32, ptr %16, align 4
  %105 = load i32, ptr %6, align 4
  %106 = icmp ult i32 %104, %105
  br i1 %106, label %107, label %195

107:                                              ; preds = %103
  %108 = load i32, ptr %17, align 4
  %109 = mul i32 %108, 2
  %110 = add i32 %109, 0
  %111 = zext i32 %110 to i64
  %112 = getelementptr inbounds [200 x float], ptr @_ZL13g_tempNormals, i64 0, i64 %111
  %113 = load float, ptr %112, align 4
  store float %113, ptr %18, align 4
  %114 = load i32, ptr %17, align 4
  %115 = mul i32 %114, 2
  %116 = add i32 %115, 1
  %117 = zext i32 %116 to i64
  %118 = getelementptr inbounds [200 x float], ptr @_ZL13g_tempNormals, i64 0, i64 %117
  %119 = load float, ptr %118, align 4
  store float %119, ptr %19, align 4
  %120 = load i32, ptr %16, align 4
  %121 = mul i32 %120, 2
  %122 = add i32 %121, 0
  %123 = zext i32 %122 to i64
  %124 = getelementptr inbounds [200 x float], ptr @_ZL13g_tempNormals, i64 0, i64 %123
  %125 = load float, ptr %124, align 4
  store float %125, ptr %20, align 4
  %126 = load i32, ptr %16, align 4
  %127 = mul i32 %126, 2
  %128 = add i32 %127, 1
  %129 = zext i32 %128 to i64
  %130 = getelementptr inbounds [200 x float], ptr @_ZL13g_tempNormals, i64 0, i64 %129
  %131 = load float, ptr %130, align 4
  store float %131, ptr %21, align 4
  %132 = load float, ptr %18, align 4
  %133 = load float, ptr %20, align 4
  %134 = fadd float %132, %133
  %135 = fmul float %134, 5.000000e-01
  store float %135, ptr %22, align 4
  %136 = load float, ptr %19, align 4
  %137 = load float, ptr %21, align 4
  %138 = fadd float %136, %137
  %139 = fmul float %138, 5.000000e-01
  store float %139, ptr %23, align 4
  %140 = load float, ptr %22, align 4
  %141 = load float, ptr %22, align 4
  %142 = load float, ptr %23, align 4
  %143 = load float, ptr %23, align 4
  %144 = fmul float %142, %143
  %145 = call float @llvm.fmuladd.f32(float %140, float %141, float %144)
  store float %145, ptr %24, align 4
  %146 = load float, ptr %24, align 4
  %147 = fcmp ogt float %146, 0x3EB0C6F7A0000000
  br i1 %147, label %148, label %161

148:                                              ; preds = %107
  %149 = load float, ptr %24, align 4
  %150 = fdiv float 1.000000e+00, %149
  store float %150, ptr %25, align 4
  %151 = load float, ptr %25, align 4
  %152 = fcmp ogt float %151, 1.000000e+01
  br i1 %152, label %153, label %154

153:                                              ; preds = %148
  store float 1.000000e+01, ptr %25, align 4
  br label %154

154:                                              ; preds = %153, %148
  %155 = load float, ptr %25, align 4
  %156 = load float, ptr %22, align 4
  %157 = fmul float %156, %155
  store float %157, ptr %22, align 4
  %158 = load float, ptr %25, align 4
  %159 = load float, ptr %23, align 4
  %160 = fmul float %159, %158
  store float %160, ptr %23, align 4
  br label %161

161:                                              ; preds = %154, %107
  %162 = load ptr, ptr %5, align 8
  %163 = load i32, ptr %16, align 4
  %164 = mul i32 %163, 2
  %165 = add i32 %164, 0
  %166 = zext i32 %165 to i64
  %167 = getelementptr inbounds float, ptr %162, i64 %166
  %168 = load float, ptr %167, align 4
  %169 = load float, ptr %22, align 4
  %170 = load float, ptr %7, align 4
  %171 = call float @llvm.fmuladd.f32(float %169, float %170, float %168)
  %172 = load i32, ptr %16, align 4
  %173 = mul i32 %172, 2
  %174 = add i32 %173, 0
  %175 = zext i32 %174 to i64
  %176 = getelementptr inbounds [200 x float], ptr @_ZL12g_tempCoords, i64 0, i64 %175
  store float %171, ptr %176, align 4
  %177 = load ptr, ptr %5, align 8
  %178 = load i32, ptr %16, align 4
  %179 = mul i32 %178, 2
  %180 = add i32 %179, 1
  %181 = zext i32 %180 to i64
  %182 = getelementptr inbounds float, ptr %177, i64 %181
  %183 = load float, ptr %182, align 4
  %184 = load float, ptr %23, align 4
  %185 = load float, ptr %7, align 4
  %186 = call float @llvm.fmuladd.f32(float %184, float %185, float %183)
  %187 = load i32, ptr %16, align 4
  %188 = mul i32 %187, 2
  %189 = add i32 %188, 1
  %190 = zext i32 %189 to i64
  %191 = getelementptr inbounds [200 x float], ptr @_ZL12g_tempCoords, i64 0, i64 %190
  store float %186, ptr %191, align 4
  br label %192

192:                                              ; preds = %161
  %193 = load i32, ptr %16, align 4
  %194 = add i32 %193, 1
  store i32 %194, ptr %16, align 4
  store i32 %193, ptr %17, align 4
  br label %103, !llvm.loop !57

195:                                              ; preds = %103
  %196 = load i32, ptr %8, align 4
  %197 = and i32 %196, 255
  %198 = trunc i32 %197 to i8
  %199 = load i32, ptr %8, align 4
  %200 = lshr i32 %199, 8
  %201 = and i32 %200, 255
  %202 = trunc i32 %201 to i8
  %203 = load i32, ptr %8, align 4
  %204 = lshr i32 %203, 16
  %205 = and i32 %204, 255
  %206 = trunc i32 %205 to i8
  %207 = call noundef i32 @_Z4RGBAhhhh(i8 noundef zeroext %198, i8 noundef zeroext %202, i8 noundef zeroext %206, i8 noundef zeroext 0)
  store i32 %207, ptr %26, align 4
  call void @glBegin(i32 noundef 4)
  call void @glColor4ubv(ptr noundef %8)
  store i32 0, ptr %27, align 4
  %208 = load i32, ptr %6, align 4
  %209 = sub i32 %208, 1
  store i32 %209, ptr %28, align 4
  br label %210

210:                                              ; preds = %242, %195
  %211 = load i32, ptr %27, align 4
  %212 = load i32, ptr %6, align 4
  %213 = icmp ult i32 %211, %212
  br i1 %213, label %214, label %245

214:                                              ; preds = %210
  %215 = load ptr, ptr %5, align 8
  %216 = load i32, ptr %27, align 4
  %217 = mul i32 %216, 2
  %218 = zext i32 %217 to i64
  %219 = getelementptr inbounds float, ptr %215, i64 %218
  call void @glVertex2fv(ptr noundef %219)
  %220 = load ptr, ptr %5, align 8
  %221 = load i32, ptr %28, align 4
  %222 = mul i32 %221, 2
  %223 = zext i32 %222 to i64
  %224 = getelementptr inbounds float, ptr %220, i64 %223
  call void @glVertex2fv(ptr noundef %224)
  call void @glColor4ubv(ptr noundef %26)
  %225 = load i32, ptr %28, align 4
  %226 = mul i32 %225, 2
  %227 = zext i32 %226 to i64
  %228 = getelementptr inbounds [200 x float], ptr @_ZL12g_tempCoords, i64 0, i64 %227
  call void @glVertex2fv(ptr noundef %228)
  %229 = load i32, ptr %28, align 4
  %230 = mul i32 %229, 2
  %231 = zext i32 %230 to i64
  %232 = getelementptr inbounds [200 x float], ptr @_ZL12g_tempCoords, i64 0, i64 %231
  call void @glVertex2fv(ptr noundef %232)
  %233 = load i32, ptr %27, align 4
  %234 = mul i32 %233, 2
  %235 = zext i32 %234 to i64
  %236 = getelementptr inbounds [200 x float], ptr @_ZL12g_tempCoords, i64 0, i64 %235
  call void @glVertex2fv(ptr noundef %236)
  call void @glColor4ubv(ptr noundef %8)
  %237 = load ptr, ptr %5, align 8
  %238 = load i32, ptr %27, align 4
  %239 = mul i32 %238, 2
  %240 = zext i32 %239 to i64
  %241 = getelementptr inbounds float, ptr %237, i64 %240
  call void @glVertex2fv(ptr noundef %241)
  br label %242

242:                                              ; preds = %214
  %243 = load i32, ptr %27, align 4
  %244 = add i32 %243, 1
  store i32 %244, ptr %27, align 4
  store i32 %243, ptr %28, align 4
  br label %210, !llvm.loop !58

245:                                              ; preds = %210
  call void @glColor4ubv(ptr noundef %8)
  store i32 2, ptr %29, align 4
  br label %246

246:                                              ; preds = %264, %245
  %247 = load i32, ptr %29, align 4
  %248 = load i32, ptr %6, align 4
  %249 = icmp ult i32 %247, %248
  br i1 %249, label %250, label %267

250:                                              ; preds = %246
  %251 = load ptr, ptr %5, align 8
  %252 = getelementptr inbounds float, ptr %251, i64 0
  call void @glVertex2fv(ptr noundef %252)
  %253 = load ptr, ptr %5, align 8
  %254 = load i32, ptr %29, align 4
  %255 = sub i32 %254, 1
  %256 = mul i32 %255, 2
  %257 = zext i32 %256 to i64
  %258 = getelementptr inbounds float, ptr %253, i64 %257
  call void @glVertex2fv(ptr noundef %258)
  %259 = load ptr, ptr %5, align 8
  %260 = load i32, ptr %29, align 4
  %261 = mul i32 %260, 2
  %262 = zext i32 %261 to i64
  %263 = getelementptr inbounds float, ptr %259, i64 %262
  call void @glVertex2fv(ptr noundef %263)
  br label %264

264:                                              ; preds = %250
  %265 = load i32, ptr %29, align 4
  %266 = add i32 %265, 1
  store i32 %266, ptr %29, align 4
  br label %246, !llvm.loop !59

267:                                              ; preds = %246
  call void @glEnd()
  ret void
}