; Function Attrs: mustprogress uwtable
define internal fastcc void @_ZL11drawPolygonPKfjfj(ptr noundef nonnull %0, i32 noundef range(i32 3, 37) %1, i32 noundef %2) unnamed_addr #19 {
  %4 = alloca i32, align 4
  %5 = alloca i32, align 4
  store i32 %2, ptr %4, align 4
  %6 = add nsw i32 %1, -1
  %wide.trip.count = zext nneg i32 %1 to i64
  br label %7

7:                                                ; preds = %3, %7
  %indvars.iv = phi i64 [ 0, %3 ], [ %indvars.iv.next, %7 ]
  %.08694 = phi i32 [ %6, %3 ], [ %31, %7 ]
  %8 = shl i32 %.08694, 1
  %9 = zext i32 %8 to i64
  %10 = getelementptr inbounds nuw float, ptr %0, i64 %9
  %.idx = shl nuw nsw i64 %indvars.iv, 3
  %11 = getelementptr inbounds nuw i8, ptr %0, i64 %.idx
  %12 = load float, ptr %11, align 4
  %13 = load float, ptr %10, align 4
  %14 = fsub float %12, %13
  %15 = getelementptr inbounds nuw i8, ptr %11, i64 4
  %16 = load float, ptr %15, align 4
  %17 = getelementptr inbounds nuw i8, ptr %10, i64 4
  %18 = load float, ptr %17, align 4
  %19 = fsub float %16, %18
  %20 = fmul float %19, %19
  %21 = tail call float @llvm.fmuladd.f32(float %14, float %14, float %20)
  %sqrt = tail call float @llvm.sqrt.f32(float %21)
  %22 = fcmp ogt float %21, 0.000000e+00
  %23 = fdiv float 1.000000e+00, %sqrt
  %24 = fmul float %14, %23
  %25 = fmul float %19, %23
  %.088 = select i1 %22, float %25, float %19
  %.087 = select i1 %22, float %24, float %14
  %26 = getelementptr inbounds nuw [200 x float], ptr @_ZL13g_tempNormals, i64 0, i64 %9
  store float %.088, ptr %26, align 8
  %27 = fneg float %.087
  %28 = or disjoint i32 %8, 1
  %29 = zext i32 %28 to i64
  %30 = getelementptr inbounds nuw [200 x float], ptr @_ZL13g_tempNormals, i64 0, i64 %29
  store float %27, ptr %30, align 4
  %indvars.iv.next = add nuw nsw i64 %indvars.iv, 1
  %31 = trunc nuw nsw i64 %indvars.iv to i32
  %exitcond.not = icmp eq i64 %indvars.iv.next, %wide.trip.count
  br i1 %exitcond.not, label %.preheader, label %7, !llvm.loop !71

.preheader:                                       ; preds = %7, %58
  %indvars.iv102 = phi i64 [ %indvars.iv.next103, %58 ], [ 0, %7 ]
  %.08997 = phi i32 [ %67, %58 ], [ %6, %7 ]
  %32 = shl nuw nsw i32 %.08997, 1
  %33 = zext nneg i32 %32 to i64
  %34 = getelementptr inbounds nuw [200 x float], ptr @_ZL13g_tempNormals, i64 0, i64 %33
  %35 = load float, ptr %34, align 8
  %36 = or disjoint i32 %32, 1
  %37 = zext nneg i32 %36 to i64
  %38 = getelementptr inbounds nuw [200 x float], ptr @_ZL13g_tempNormals, i64 0, i64 %37
  %39 = load float, ptr %38, align 4
  %40 = shl nuw nsw i64 %indvars.iv102, 1
  %41 = getelementptr inbounds nuw [200 x float], ptr @_ZL13g_tempNormals, i64 0, i64 %40
  %42 = load float, ptr %41, align 8
  %43 = or disjoint i64 %40, 1
  %44 = getelementptr inbounds nuw [200 x float], ptr @_ZL13g_tempNormals, i64 0, i64 %43
  %45 = load float, ptr %44, align 4
  %46 = fadd float %35, %42
  %47 = fmul float %46, 5.000000e-01
  %48 = fadd float %39, %45
  %49 = fmul float %48, 5.000000e-01
  %50 = fmul float %49, %49
  %51 = tail call float @llvm.fmuladd.f32(float %47, float %47, float %50)
  %52 = fcmp ogt float %51, 0x3EB0C6F7A0000000
  br i1 %52, label %53, label %58

53:                                               ; preds = %.preheader
  %54 = fdiv float 1.000000e+00, %51
  %55 = fcmp ogt float %54, 1.000000e+01
  %.082 = select i1 %55, float 1.000000e+01, float %54
  %56 = fmul float %47, %.082
  %57 = fmul float %49, %.082
  br label %58

58:                                               ; preds = %53, %.preheader
  %.084 = phi float [ %56, %53 ], [ %47, %.preheader ]
  %.083 = phi float [ %57, %53 ], [ %49, %.preheader ]
  %59 = getelementptr inbounds nuw float, ptr %0, i64 %40
  %60 = load float, ptr %59, align 4
  %61 = fadd float %.084, %60
  %62 = getelementptr inbounds nuw [200 x float], ptr @_ZL12g_tempCoords, i64 0, i64 %40
  store float %61, ptr %62, align 8
  %63 = getelementptr inbounds nuw float, ptr %0, i64 %43
  %64 = load float, ptr %63, align 4
  %65 = fadd float %.083, %64
  %66 = getelementptr inbounds nuw [200 x float], ptr @_ZL12g_tempCoords, i64 0, i64 %43
  store float %65, ptr %66, align 4
  %indvars.iv.next103 = add nuw nsw i64 %indvars.iv102, 1
  %67 = trunc nuw nsw i64 %indvars.iv102 to i32
  %exitcond106.not = icmp eq i64 %indvars.iv.next103, %wide.trip.count
  br i1 %exitcond106.not, label %68, label %.preheader, !llvm.loop !72

68:                                               ; preds = %58
  %69 = and i32 %2, 16777215
  store i32 %69, ptr %5, align 4
  tail call void @glBegin(i32 noundef 4)
  call void @glColor4ubv(ptr noundef nonnull %4)
  br label %70

70:                                               ; preds = %68, %70
  %indvars.iv107 = phi i64 [ 0, %68 ], [ %indvars.iv.next108, %70 ]
  %.08099 = phi i32 [ %6, %68 ], [ %78, %70 ]
  %71 = shl nuw nsw i64 %indvars.iv107, 1
  %72 = getelementptr inbounds nuw float, ptr %0, i64 %71
  call void @glVertex2fv(ptr noundef nonnull %72)
  %73 = shl nuw nsw i32 %.08099, 1
  %74 = zext nneg i32 %73 to i64
  %75 = getelementptr inbounds nuw float, ptr %0, i64 %74
  call void @glVertex2fv(ptr noundef nonnull %75)
  call void @glColor4ubv(ptr noundef nonnull %5)
  %76 = getelementptr inbounds nuw [200 x float], ptr @_ZL12g_tempCoords, i64 0, i64 %74
  call void @glVertex2fv(ptr noundef nonnull %76)
  call void @glVertex2fv(ptr noundef nonnull %76)
  %77 = getelementptr inbounds nuw [200 x float], ptr @_ZL12g_tempCoords, i64 0, i64 %71
  call void @glVertex2fv(ptr noundef nonnull %77)
  call void @glColor4ubv(ptr noundef nonnull %4)
  call void @glVertex2fv(ptr noundef nonnull %72)
  %indvars.iv.next108 = add nuw nsw i64 %indvars.iv107, 1
  %78 = trunc nuw nsw i64 %indvars.iv107 to i32
  %exitcond111.not = icmp eq i64 %indvars.iv.next108, %wide.trip.count
  br i1 %exitcond111.not, label %79, label %70, !llvm.loop !73

79:                                               ; preds = %70
  call void @glColor4ubv(ptr noundef nonnull %4)
  %invariant.gep = getelementptr i8, ptr %0, i64 -8
  br label %80

80:                                               ; preds = %79, %80
  %indvars.iv112 = phi i64 [ 2, %79 ], [ %indvars.iv.next113, %80 ]
  call void @glVertex2fv(ptr noundef nonnull %0)
  %81 = shl nuw i64 %indvars.iv112, 1
  %gep = getelementptr float, ptr %invariant.gep, i64 %81
  call void @glVertex2fv(ptr noundef nonnull %gep)
  %82 = getelementptr inbounds nuw float, ptr %0, i64 %81
  call void @glVertex2fv(ptr noundef nonnull %82)
  %indvars.iv.next113 = add nuw nsw i64 %indvars.iv112, 1
  %exitcond116.not = icmp eq i64 %indvars.iv.next113, %wide.trip.count
  br i1 %exitcond116.not, label %83, label %80, !llvm.loop !74

83:                                               ; preds = %80
  call void @glEnd()
  ret void
}